; Function Attrs: nounwind sspstrong uwtable
define dso_local void @v9fs_rlerror(ptr noundef %0, ptr noundef %1) local_unnamed_addr #1 {
  tail call void @v9fs_req_recv(ptr noundef %0, i8 noundef zeroext 7)
  %3 = load ptr, ptr %0, align 8
  %4 = getelementptr inbounds nuw i8, ptr %0, i64 40
  %5 = load i64, ptr %4, align 8
  %6 = getelementptr inbounds nuw i8, ptr %0, i64 56
  %7 = load i64, ptr %6, align 8
  %8 = add i64 %7, %5
  tail call void @qtest_memread(ptr noundef %3, i64 noundef %8, ptr noundef %1, i64 noundef 4) #14
  %9 = load i64, ptr %6, align 8
  %10 = add i64 %9, 4
  store i64 %10, ptr %6, align 8
  %11 = load ptr, ptr @alloc, align 8
  %12 = getelementptr inbounds nuw i8, ptr %0, i64 24
  %13 = load i64, ptr %12, align 8
  tail call void @guest_free(ptr noundef %11, i64 noundef %13) #14
  %14 = load ptr, ptr @alloc, align 8
  %15 = load i64, ptr %4, align 8
  tail call void @guest_free(ptr noundef %14, i64 noundef %15) #14
  tail call void @g_free(ptr noundef nonnull %0) #14
  ret void
}